Microchip MPLAB XC8 Compiler V2.40

Linker command line:

-W-3 \
  --edf=C:\Program Files\Microchip\xc8\v2.40\pic\dat\20220703182018_en.msgs \
  -cn -h+dist/default/production\ED2_Lab_02.X.production.sym \
  --cmf=dist/default/production\ED2_Lab_02.X.production.cmf -z -Q16F887 \
  -oC:\Users\Gabriel\AppData\Local\Temp\xcAs7k8.4 --defsym=__MPLAB_BUILD=1 \
  --fixupoverflow=error \
  -Mdist/default/production/ED2_Lab_02.X.production.map \
  --md=C:\Users\Gabriel\AppData\Local\Temp\xcAs7k8.dat -E1 \
  -ver=XC8 Compiler --acfsm=1493 -ACODE=00h-07FFhx4 -ASTRCODE=00h-01FFFh \
  -ASTRING=00h-0FFhx32 -ACONST=00h-0FFhx32 -AENTRY=00h-0FFhx32 \
  -ACOMMON=070h-07Fh -ABANK0=020h-06Fh -ABANK1=0A0h-0EFh \
  -ABANK2=0110h-016Fh -ABANK3=0190h-01EFh \
  -ARAM=020h-06Fh,0A0h-0EFh,0110h-016Fh,0190h-01EFh \
  -AABS1=020h-07Fh,0A0h-0EFh,0110h-016Fh,0190h-01EFh -ASFR0=00h-01Fh \
  -ASFR1=080h-09Fh -ASFR2=0100h-010Fh -ASFR3=0180h-018Fh \
  -ACONFIG=02007h-02008h -DCONFIG=2 -AIDLOC=02000h-02003h -DIDLOC=2 \
  -AEEDATA=00h-0FFh/02100h -peeprom_data=EEDATA -DEEDATA=2 -DCODE=2 \
  -DSTRCODE=2 -DSTRING=2 -DCONST=2 -DENTRY=2 \
  -preset_vec=00h,intentry=04h,init,end_init -ppowerup=CODE -pcinit=CODE \
  -pfunctab=ENTRY -k C:\Users\Gabriel\AppData\Local\Temp\xcAs7k8.o \
  dist/default/production\ED2_Lab_02.X.production.o 

Object code version is 3.11

Machine type is 16F887



                Name                               Link     Load   Length Selector   Space Scale
C:\Users\Gabriel\AppData\Local\Temp\xcAs7k8.o
                end_init                              C        C        3        8       0
                reset_vec                             0        0        3        0       0
                config                             2007     2007        2        0       4
                idloc                              2000     2000        4        0       5
dist/default/production\ED2_Lab_02.X.production.o
                cinit                                 F        F       14        8       0
                intentry                              4        4        8        8       0
                config                             2007     2007        2        0       4
                idloc                              2000     2000        4        0       5
                text19                              65B      65B        A      AFE       0
                text18                              607      607       19      AFE       0
                text17                              4E5      4E5       3C        8       0
                text16                              5EB      5EB       1C      AFE       0
                text15                              64E      64E        D      AFE       0
                text14                              3C2      3C2       5B        8       0
                text13                              5C9      5C9       22      AFE       0
                text12                              620      620       18      AFE       0
                text11                              463      463       46        8       0
                text10                              367      367       5B        8       0
                text9                               129      129       F9        8       0
                text8                               5A6      5A6       23      AFE       0
                text7                               2FE      2FE       69        8       0
                text6                               57F      57F       27      AFE       0
                text5                               521      521       35        8       0
                text4                               638      638       16      AFE       0
                text3                               41D      41D       46        8       0
                text2                               4A9      4A9       3C        8       0
                text1                               222      222       DC        8       0
                maintext                             23       23      106        8       0
                cstackBANK0                          20       20       25       20       1
                cstackCOMMON                         70       70        6       70       1
                bssBANK0                             45       45        A       20       1
                bssCOMMON                            76       76        4       70       1
                strings                             556      556       29      AAC       0

TOTAL           Name                               Link     Load   Length     Space
        CLASS   CODE           
                end_init                              C        C        3         0
                cinit                                 F        F       14         0
                intentry                              4        4        8         0
                reset_vec                             0        0        3         0
                text19                              65B      65B        A         0
                text18                              607      607       19         0
                text17                              4E5      4E5       3C         0
                text16                              5EB      5EB       1C         0
                text15                              64E      64E        D         0
                text14                              3C2      3C2       5B         0
                text13                              5C9      5C9       22         0
                text12                              620      620       18         0
                text11                              463      463       46         0
                text10                              367      367       5B         0
                text9                               129      129       F9         0
                text8                               5A6      5A6       23         0
                text7                               2FE      2FE       69         0
                text6                               57F      57F       27         0
                text5                               521      521       35         0
                text4                               638      638       16         0
                text3                               41D      41D       46         0
                text2                               4A9      4A9       3C         0
                text1                               222      222       DC         0
                maintext                             23       23      106         0

        CLASS   STRCODE        

        CLASS   STRING         
                strings                             556      556       29         0

        CLASS   CONST          

        CLASS   ENTRY          

        CLASS   COMMON         
                cstackCOMMON                         70       70        6         1
                bssCOMMON                            76       76        4         1

        CLASS   BANK0          
                cstackBANK0                          20       20       25         1
                bssBANK0                             45       45        A         1

        CLASS   BANK1          

        CLASS   BANK2          

        CLASS   BANK3          

        CLASS   RAM            

        CLASS   ABS1           
                abs_s1                               7E       7E        2         1

        CLASS   SFR0           

        CLASS   SFR1           

        CLASS   SFR2           

        CLASS   SFR3           

        CLASS   CONFIG         
                config                             2007     2007        2         4

        CLASS   IDLOC          
                idloc                              2000     2000        4         5

        CLASS   EEDATA         

        CLASS   STACK          



SEGMENTS        Name                           Load    Length   Top    Selector   Space  Class     Delta

                reset_vec                      000000  000003  000003         0       0  CODE        2
                intentry                       000004  000552  000556         8       0  CODE        2
                cstackBANK0                    000020  00002F  00004F        20       1  BANK0       1
                cstackCOMMON                   000070  00000A  00007A        70       1  COMMON      1
                strings                        000556  000029  00057F       AAC       0  STRING      2
                text6                          00057F  0000E6  000665       AFE       0  CODE        2


UNUSED ADDRESS RANGES

        Name                Unused          Largest block    Delta
        BANK0            004F-006F             21           1
        BANK1            00A0-00EF             50           1
        BANK2            0110-016F             60           1
        BANK3            0190-01EF             60           1
        CODE             0003-0003              1           2
                         0665-1FFF            800
        COMMON           007A-007D              4           1
        CONST            0003-0003              1           2
                         0665-1FFF            100
        EEDATA           2100-21FF            100           2
        ENTRY            0003-0003              1           2
                         0665-1FFF            100
        RAM              004F-006F             21           1
                         00A0-00EF             50
                         0110-016F             60
                         0190-01EF             60
        SFR0             0000-001F             20           1
        SFR1             0080-009F             20           1
        SFR2             0100-010F             10           1
        SFR3             0180-018F             10           1
        STRCODE          0003-0003              1           2
                         0665-1FFF           199B
        STRING           0003-0003              1           2
                         0665-1FFF            100

                                  Symbol Table

?___awdiv                   cstackBANK0  0026
?___awmod                   cstackBANK0  002F
?___lwdiv                   cstackBANK0  0020
?___lwmod                   cstackBANK0  0028
?___wmul                    cstackBANK0  0020
?_adc_read                  cstackCOMMON 0070
?_map_adc_volt              cstackBANK0  002F
?_sprintf                   cstackBANK0  002E
Lcd_Cmd@a                   cstackBANK0  0023
Lcd_Port@a                  cstackBANK0  0020
Lcd_Set_Cursor@a            cstackBANK0  0025
Lcd_Set_Cursor@b            cstackBANK0  0024
Lcd_Set_Cursor@temp         cstackBANK0  0026
Lcd_Write_Char@a            cstackBANK0  0022
Lcd_Write_String@a          cstackBANK0  0023
Lcd_Write_String@i          cstackBANK0  0028
_ADCON0bits                 (abs)        001F
_ADCON1bits                 (abs)        009F
_ADRESH                     (abs)        001E
_ANSEL                      (abs)        0188
_ANSELH                     (abs)        0189
_INTCONbits                 (abs)        000B
_Lcd_Clear                  text15       064E
_Lcd_Cmd                    text16       05EB
_Lcd_Init                   text14       03C2
_Lcd_Port                   text17       04E5
_Lcd_Set_Cursor             text13       05C9
_Lcd_Write_Char             text12       0620
_Lcd_Write_String           text11       0463
_OSCCONbits                 (abs)        008F
_PIE1bits                   (abs)        008C
_PIR1bits                   (abs)        000C
_PORTA                      (abs)        0005
_PORTB                      (abs)        0006
_PORTC                      (abs)        0007
_PORTCbits                  (abs)        0007
_PORTD                      (abs)        0008
_PORTDbits                  (abs)        0008
_PORTE                      (abs)        0009
_TRISB                      (abs)        0086
_TRISC                      (abs)        0087
_TRISD                      (abs)        0088
__Habs1                     abs1         0000
__Hbank0                    bank0        0000
__Hbank1                    bank1        0000
__Hbank2                    bank2        0000
__Hbank3                    bank3        0000
__HbssBANK0                 bssBANK0     0000
__HbssCOMMON                bssCOMMON    0000
__Hcinit                    cinit        0023
__Hclrtext                  clrtext      0000
__Hcode                     code         0000
__Hcommon                   common       0000
__Hconfig                   config       2009
__HcstackBANK0              cstackBANK0  0000
__HcstackCOMMON             cstackCOMMON 0000
__Heeprom_data              eeprom_data  0000
__Hend_init                 end_init     000F
__Hfunctab                  functab      0000
__Hidloc                    idloc        2004
__Hinit                     init         000C
__Hintentry                 intentry     000C
__Hmaintext                 maintext     0000
__Hpowerup                  powerup      0000
__Hram                      ram          0000
__Hreset_vec                reset_vec    0003
__Hsfr0                     sfr0         0000
__Hsfr1                     sfr1         0000
__Hsfr2                     sfr2         0000
__Hsfr3                     sfr3         0000
__Hspace_0                  (abs)        0665
__Hspace_1                  (abs)        007A
__Hspace_2                  (abs)        0000
__Hspace_3                  (abs)        0000
__Hspace_4                  (abs)        4010
__Hstack                    stack        0000
__Hstrings                  strings      0000
__Htext                     text         0000
__Labs1                     abs1         0000
__Lbank0                    bank0        0000
__Lbank1                    bank1        0000
__Lbank2                    bank2        0000
__Lbank3                    bank3        0000
__LbssBANK0                 bssBANK0     0000
__LbssCOMMON                bssCOMMON    0000
__Lcinit                    cinit        000F
__Lclrtext                  clrtext      0000
__Lcode                     code         0000
__Lcommon                   common       0000
__Lconfig                   config       0000
__LcstackBANK0              cstackBANK0  0000
__LcstackCOMMON             cstackCOMMON 0000
__Leeprom_data              eeprom_data  0000
__Lend_init                 end_init     000C
__Lfunctab                  functab      0000
__Lidloc                    idloc        0000
__Linit                     init         000C
__Lintentry                 intentry     0004
__Lmaintext                 maintext     0000
__Lpowerup                  powerup      0000
__Lram                      ram          0000
__Lreset_vec                reset_vec    0000
__Lsfr0                     sfr0         0000
__Lsfr1                     sfr1         0000
__Lsfr2                     sfr2         0000
__Lsfr3                     sfr3         0000
__Lspace_0                  (abs)        0000
__Lspace_1                  (abs)        0000
__Lspace_2                  (abs)        0000
__Lspace_3                  (abs)        0000
__Lspace_4                  (abs)        0000
__Lstack                    stack        0000
__Lstrings                  strings      0000
__Ltext                     text         0000
__S0                        (abs)        0665
__S1                        (abs)        007A
__S3                        (abs)        0000
___awdiv                    text7        02FE
___awdiv@counter            cstackBANK0  002B
___awdiv@dividend           cstackBANK0  0028
___awdiv@divisor            cstackBANK0  0026
___awdiv@quotient           cstackBANK0  002D
___awdiv@sign               cstackBANK0  002C
___awmod                    text10       0367
___awmod@counter            cstackBANK0  0034
___awmod@dividend           cstackBANK0  0031
___awmod@divisor            cstackBANK0  002F
___awmod@sign               cstackBANK0  0035
___int_sp                   stack        0000
___latbits                  (abs)        0002
___lwdiv                    text3        041D
___lwdiv@counter            cstackBANK0  0025
___lwdiv@dividend           cstackBANK0  0022
___lwdiv@divisor            cstackBANK0  0020
___lwdiv@quotient           cstackBANK0  0026
___lwmod                    text2        04A9
___lwmod@counter            cstackBANK0  002D
___lwmod@dividend           cstackBANK0  002A
___lwmod@divisor            cstackBANK0  0028
___sp                       stack        0000
___stackhi                  (abs)        0000
___stacklo                  (abs)        0000
___wmul                     text6        057F
___wmul@multiplicand        cstackBANK0  0022
___wmul@multiplier          cstackBANK0  0020
___wmul@product             cstackBANK0  0024
__end_of_Lcd_Clear          text15       065B
__end_of_Lcd_Cmd            text16       0607
__end_of_Lcd_Init           text14       041D
__end_of_Lcd_Port           text17       0521
__end_of_Lcd_Set_Cursor     text13       05EB
__end_of_Lcd_Write_Char     text12       0638
__end_of_Lcd_Write_String   text11       04A9
__end_of___awdiv            text7        0367
__end_of___awmod            text10       03C2
__end_of___lwdiv            text3        0463
__end_of___lwmod            text2        04E5
__end_of___wmul             text6        05A6
__end_of__initialization    cinit        001F
__end_of__stringtab         strings      0566
__end_of_adc_change_channel text9        0222
__end_of_adc_init           text8        05C9
__end_of_adc_read           text19       0665
__end_of_dpowers            strings      0570
__end_of_isr                text18       0620
__end_of_main               maintext     0129
__end_of_map_adc_volt       text5        0556
__end_of_setup              text4        064E
__end_of_sprintf            text1        02FE
__initialization            cinit        000F
__pbssBANK0                 bssBANK0     0045
__pbssCOMMON                bssCOMMON    0076
__pcstackBANK0              cstackBANK0  0020
__pcstackCOMMON             cstackCOMMON 0070
__pintentry                 intentry     0004
__pmaintext                 maintext     0023
__pstrings                  strings      0556
__ptext1                    text1        0222
__ptext10                   text10       0367
__ptext11                   text11       0463
__ptext12                   text12       0620
__ptext13                   text13       05C9
__ptext14                   text14       03C2
__ptext15                   text15       064E
__ptext16                   text16       05EB
__ptext17                   text17       04E5
__ptext18                   text18       0607
__ptext19                   text19       065B
__ptext2                    text2        04A9
__ptext3                    text3        041D
__ptext4                    text4        0638
__ptext5                    text5        0521
__ptext6                    text6        057F
__ptext7                    text7        02FE
__ptext8                    text8        05A6
__ptext9                    text9        0129
__stringbase                strings      0565
__stringtab                 strings      0556
_adc_change_channel         text9        0129
_adc_init                   text8        05A6
_adc_read                   text19       065B
_adc_var                    bssBANK0     0047
_cen_volt                   bssBANK0     0049
_dec_volt                   bssBANK0     004A
_display                    bssBANK0     004C
_dpowers                    strings      0566
_isr                        text18       0607
_main                       maintext     0023
_map_adc_volt               text5        0521
_setup                      text4        0638
_sprintf                    text1        0222
_uni_volt                   bssBANK0     004B
_voltage1                   bssBANK0     0045
adc_change_channel@channel  cstackBANK0  0020
adc_init@channel            cstackBANK0  0022
btemp                       (abs)        007E
end_of_initialization       cinit        001F
interrupt_function          intentry     0004
intlevel0                   functab      0000
intlevel1                   functab      0000
intlevel2                   functab      0000
intlevel3                   functab      0000
intlevel4                   functab      0000
intlevel5                   functab      0000
map_adc_volt@inputmax       cstackBANK0  0033
map_adc_volt@inputmin       cstackBANK0  0031
map_adc_volt@outmax         cstackBANK0  0037
map_adc_volt@outmin         cstackBANK0  0035
map_adc_volt@value          cstackBANK0  002F
reset_vec                   reset_vec    0000
saved_w                     (abs)        007E
sprintf@ap                  cstackBANK0  0038
sprintf@c                   cstackBANK0  003E
sprintf@f                   cstackBANK0  002E
sprintf@flag                cstackBANK0  0039
sprintf@prec                cstackBANK0  003A
sprintf@sp                  cstackBANK0  003D
sprintf@val                 cstackBANK0  003B
start                       init         000C
start_initialization        cinit        000F
wtemp0                      (abs)        007E


MODULE INFORMATION

Module		Function		Class		Link	Load	Size
C:\Program Files\Microchip\xc8\v2.40\pic\sources\c90\common\awdiv.c
		___awdiv       		CODE           	02FE	0000	105

C:\Program Files\Microchip\xc8\v2.40\pic\sources\c90\common\awdiv.c estimated size: 105

C:\Program Files\Microchip\xc8\v2.40\pic\sources\c90\common\doprnt.c
		_sprintf       		CODE           	0222	0000	220

C:\Program Files\Microchip\xc8\v2.40\pic\sources\c90\common\doprnt.c estimated size: 220

C:\Program Files\Microchip\xc8\v2.40\pic\sources\c90\common\Umul16.c
		___wmul        		CODE           	057F	0000	39

C:\Program Files\Microchip\xc8\v2.40\pic\sources\c90\common\Umul16.c estimated size: 39

C:\Program Files\Microchip\xc8\v2.40\pic\sources\c90\common\lwmod.c
		___lwmod       		CODE           	04A9	0000	60

C:\Program Files\Microchip\xc8\v2.40\pic\sources\c90\common\lwmod.c estimated size: 60

shared
		__stringtab    		STRING         	0556	0000	16
		_dpowers       		STRING         	0566	0000	10
		__initialization		CODE           	000F	0000	16

shared estimated size: 42

ADC_setup.c
		_map_adc_volt  		CODE           	0521	0000	53
		_adc_read      		CODE           	065B	0000	10
		_adc_change_channel		CODE           	0129	0000	249
		_adc_init      		CODE           	05A6	0000	35

ADC_setup.c estimated size: 347

C:\Program Files\Microchip\xc8\v2.40\pic\sources\c90\common\awmod.c
		___awmod       		CODE           	0367	0000	91

C:\Program Files\Microchip\xc8\v2.40\pic\sources\c90\common\awmod.c estimated size: 91

main.c
		_main          		CODE           	0023	0000	262
		_isr           		CODE           	0607	0000	25
		_setup         		CODE           	0638	0000	22

main.c estimated size: 309

C:\Program Files\Microchip\xc8\v2.40\pic\sources\c90\common\lwdiv.c
		___lwdiv       		CODE           	041D	0000	70

C:\Program Files\Microchip\xc8\v2.40\pic\sources\c90\common\lwdiv.c estimated size: 70

LCD.c
		_Lcd_Write_String		CODE           	0463	0000	70
		_Lcd_Init      		CODE           	03C2	0000	91
		_Lcd_Write_Char		CODE           	0620	0000	24
		_Lcd_Cmd       		CODE           	05EB	0000	28
		_Lcd_Set_Cursor		CODE           	05C9	0000	34
		_Lcd_Clear     		CODE           	064E	0000	13
		_Lcd_Port      		CODE           	04E5	0000	60

LCD.c estimated size: 320

